; Function Attrs: mustprogress uwtable
define hidden void @_ZN5ceres8internal29BlockRandomAccessSparseMatrix7SetZeroEv(ptr nocapture noundef nonnull readonly align 8 dereferenceable(112) %0) unnamed_addr #0 align 2 {
  %2 = getelementptr inbounds i8, ptr %0, i64 104
  %3 = load ptr, ptr %2, align 8
  %4 = getelementptr inbounds i8, ptr %0, i64 32
  %5 = load ptr, ptr %4, align 8
  %6 = getelementptr inbounds i8, ptr %0, i64 40
  %7 = load i32, ptr %6, align 8
  tail call void @_ZN5ceres8internal17BlockSparseMatrix7SetZeroEPNS0_11ContextImplEi(ptr noundef nonnull align 8 dereferenceable(56) %3, ptr noundef %5, i32 noundef %7)
  ret void
}